(lp0
(icampus
Campus
p1
(dp2
S'list_of_buildings'
p3
(lp4
(ibuilds
Building
p5
(dp6
S'name'
p7
S'Edif\xc3\xadcio principal'
p8
sS'longitude'
p9
I0
sS'toplevel_id'
p10
V2448131360898
p11
sS'radius'
p12
I0
sS'latitude'
p13
I0
sS'id'
p14
V2448131365084
p15
sbasS'type'
p16
VCAMPUS
p17
sg14
V2448131360898
p18
sg7
S'Taguspark'
p19
sba(icampus
Campus
p20
(dp21
g3
(lp22
(ibuilds
Building
p23
(dp24
g7
S'Pavilh\xc3\xa3o de Inform\xc3\xa1tica III'
p25
sg9
I0
sg10
V2448131360897
p26
sg12
I0
sg13
I0
sg14
V2448131361129
p27
sba(ibuilds
Building
p28
(dp29
g7
S'Torre Norte'
p30
sg9
I0
sg10
V2448131360897
p31
sg12
I0
sg13
I0
sg14
V2448131361091
p32
sba(ibuilds
Building
p33
(dp34
g7
S'Torre Sul'
p35
sg9
I0
sg10
V2448131360897
p36
sg12
I0
sg13
I0
sg14
V2448131361074
p37
sba(ibuilds
Building
p38
(dp39
g7
S'Pavilh\xc3\xa3o do Jardim Sul'
p40
sg9
I0
sg10
V2448131360897
p41
sg12
I0
sg13
I0
sg14
V2448131361175
p42
sba(ibuilds
Building
p43
(dp44
g7
S'Pavilh\xc3\xa3o de Mec\xc3\xa2nica I'
p45
sg9
I0
sg10
V2448131360897
p46
sg12
I0
sg13
I0
sg14
V2448131361165
p47
sba(ibuilds
Building
p48
(dp49
g7
S'Pavilh\xc3\xa3o do Jardim Norte'
p50
sg9
I0
sg10
V2448131360897
p51
sg12
I0
sg13
I0
sg14
V2448131361176
p52
sba(ibuilds
Building
p53
(dp54
g7
S'Pavilh\xc3\xa3o de Civil'
p55
sg9
I0
sg10
V2448131360897
p56
sg12
I0
sg13
I0
sg14
V2448131361042
p57
sba(ibuilds
Building
p58
(dp59
g7
S'Sec\xc3\xa7\xc3\xa3o de Folhas'
p60
sg9
I0
sg10
V2448131360897
p61
sg12
I0
sg13
I0
sg14
V2448131377838
p62
sba(ibuilds
Building
p63
(dp64
g7
S'Pavilh\xc3\xa3o de Minas'
p65
sg9
I0
sg10
V2448131360897
p66
sg12
I0
sg13
I0
sg14
V2448131361139
p67
sba(ibuilds
Building
p68
(dp69
g7
S'Infant\xc3\xa1rio'
p70
sg9
I0
sg10
V2448131360897
p71
sg12
I0
sg13
I0
sg14
V2448131371435
p72
sba(ibuilds
Building
p73
(dp74
g7
S'Pavilh\xc3\xa3o de Electricidade'
p75
sg9
I0
sg10
V2448131360897
p76
sg12
I0
sg13
I0
sg14
V2448131361024
p77
sba(ibuilds
Building
p78
(dp79
g7
S'Complexo Interdisciplinar'
p80
sg9
I0
sg10
V2448131360897
p81
sg12
I0
sg13
I0
sg14
V2448131361035
p82
sba(ibuilds
Building
p83
(dp84
g7
S'Pavilh\xc3\xa3o de Inform\xc3\xa1tica II'
p85
sg9
I0
sg10
V2448131360897
p86
sg12
I0
sg13
I0
sg14
V2448131361173
p87
sba(ibuilds
Building
p88
(dp89
g7
S'Pavilh\xc3\xa3o de Matem\xc3\xa1tica'
p90
sg9
I0
sg10
V2448131360897
p91
sg12
I0
sg13
I0
sg14
V2448131361119
p92
sba(ibuilds
Building
p93
(dp94
g7
S'Pavilh\xc3\xa3o de F\xc3\xadsica'
p95
sg9
I0
sg10
V2448131360897
p96
sg12
I0
sg13
I0
sg14
V2448131361051
p97
sba(ibuilds
Building
p98
(dp99
g7
S'Pavilh\xc3\xa3o de Inform\xc3\xa1tica I'
p100
sg9
I0
sg10
V2448131360897
p101
sg12
I0
sg13
I0
sg14
V2448131361133
p102
sba(ibuilds
Building
p103
(dp104
g7
S'Pavilh\xc3\xa3o Central'
p105
sg9
I0
sg10
V2448131360897
p106
sg12
I0
sg13
I0
sg14
V2448131361060
p107
sba(ibuilds
Building
p108
(dp109
g7
S'Pavilh\xc3\xa3o de Ac\xc3\xa7\xc3\xa3o Social'
p110
sg9
I0
sg10
V2448131360897
p111
sg12
I0
sg13
I0
sg14
V2448131361069
p112
sba(ibuilds
Building
p113
(dp114
g7
S'Pavilh\xc3\xa3o de Mec\xc3\xa2nica II'
p115
sg9
I0
sg10
V2448131360897
p116
sg12
I0
sg13
I0
sg14
V2448131361161
p117
sba(ibuilds
Building
p118
(dp119
g7
S'Pavilh\xc3\xa3o de Mec\xc3\xa2nica IV'
p120
sg9
I0
sg10
V2448131360897
p121
sg12
I0
sg13
I0
sg14
V2448131361150
p122
sba(ibuilds
Building
p123
(dp124
g7
S'Pavilh\xc3\xa3o de Mec\xc3\xa2nica III'
p125
sg9
I0
sg10
V2448131360897
p126
sg12
I0
sg13
I0
sg14
V2448131361155
p127
sba(ibuilds
Building
p128
(dp129
g7
S'Pavilh\xc3\xa3o da Associa\xc3\xa7\xc3\xa3o dos  Estudantes'
p130
sg9
I0
sg10
V2448131360897
p131
sg12
I0
sg13
I0
sg14
V2448131384238
p132
sba(ibuilds
Building
p133
(dp134
g7
S'Pavilh\xc3\xa3o de Qu\xc3\xadmica'
p135
sg9
I0
sg10
V2448131360897
p136
sg12
I0
sg13
I0
sg14
V2448131361109
p137
sbasg16
VCAMPUS
p138
sg14
V2448131360897
p139
sg7
S'Alameda'
p140
sba(icampus
Campus
p141
(dp142
g3
(lp143
(ibuilds
Building
p144
(dp145
g7
S'F\xc3\xadsica'
p146
sg9
I0
sg10
V2448131392438
p147
sg12
I0
sg13
I0
sg14
V846873061490709
p148
sba(ibuilds
Building
p149
(dp150
g7
S'Liq. H\xc3\xa9lio / LETAL'
p151
sg9
I0
sg10
V2448131392438
p152
sg12
I0
sg13
I0
sg14
V1691297991622660
p153
sba(ibuilds
Building
p154
(dp155
g7
S'DPRSN - Prote\xc3\xa7\xc3\xa3o e Seguran\xc3\xa7a Radiol\xc3\xb3gica'
p156
sg9
I0
sg10
V2448131392438
p157
sg12
I0
sg13
I0
sg14
V283923108069473
p158
sba(ibuilds
Building
p159
(dp160
g7
S'Administra\xc3\xa7\xc3\xa3o'
p161
sg9
I0
sg10
V2448131392438
p162
sg12
I0
sg13
I0
sg14
V1691297991622663
p163
sba(ibuilds
Building
p164
(dp165
g7
S'Biblioteca'
p166
sg9
I0
sg10
V2448131392438
p167
sg12
I0
sg13
I0
sg14
V1691297991622710
p168
sba(ibuilds
Building
p169
(dp170
g7
S'DPRSN_dosimetria'
p171
sg9
I0
sg10
V2448131392438
p172
sg12
I0
sg13
I0
sg14
V1691297991622851
p173
sba(ibuilds
Building
p174
(dp175
g7
S'DPRSN Armaz\xc3\xa9m'
p176
sg9
I0
sg10
V2448131392438
p177
sg12
I0
sg13
I0
sg14
V283923108069461
p178
sbasg16
VCAMPUS
p179
sg14
V2448131392438
p180
sg7
S'Tecnol\xc3\xb3gico e Nuclear'
p181
sba.