(lp0
(icampus
Campus
p1
(dp2
S'type'
p3
VCAMPUS
p4
sS'id'
p5
V2448131360898
p6
sS'name'
p7
S'Taguspark'
p8
sba(icampus
Campus
p9
(dp10
g3
VCAMPUS
p11
sg5
V2448131360897
p12
sg7
S'Alameda'
p13
sba(icampus
Campus
p14
(dp15
g3
VCAMPUS
p16
sg5
V2448131392438
p17
sg7
S'Tecnol\xc3\xb3gico e Nuclear'
p18
sba.